target datalayout = "e-m:e-p270:32:32-p271:32:32-p272:64:64-i64:64-i128:128-f80:128-n8:16:32:64-S128"
target triple = "x86_64-pc-linux-gnu"

%"class.icu_77::UnicodeString" = type { %"class.icu_77::Replaceable", %"union.icu_77::UnicodeString::StackBufferOrFields" }
%"class.icu_77::Replaceable" = type { %"class.icu_77::UObject" }
%"class.icu_77::UObject" = type { ptr }
%"union.icu_77::UnicodeString::StackBufferOrFields" = type { %struct.anon.0, [32 x i8] }
%struct.anon.0 = type { i16, i32, i32, ptr }
%"class.icu_77::RuleBasedNumberFormat" = type { %"class.icu_77::NumberFormat.base", ptr, ptr, i32, ptr, %"class.icu_77::Locale", ptr, ptr, ptr, ptr, i32, i8, ptr, ptr, %"class.icu_77::UnicodeString", i8, i8, i8, ptr }
%"class.icu_77::NumberFormat.base" = type <{ %"class.icu_77::Format", i8, [3 x i8], i32, i32, i32, i32, i8, i8, [4 x i16], [2 x i8], i32 }>
%"class.icu_77::Format" = type { %"class.icu_77::UObject", ptr, ptr }
%"class.icu_77::Locale" = type <{ %"class.icu_77::UObject", [12 x i8], [6 x i8], [4 x i8], [2 x i8], i32, [4 x i8], ptr, [157 x i8], [3 x i8], ptr, i8, [7 x i8] }>

@.str.11 = private unnamed_addr constant [18 x i8] c"contextTransforms\00", align 1
@.str.12 = private unnamed_addr constant [16 x i8] c"number-spellout\00", align 1

; Function Attrs: inlinehint mustprogress nounwind uwtable
define internal noundef signext i8 @_ZL9U_SUCCESS10UErrorCode(i32 noundef %0) #4 {
  %2 = alloca i32, align 4
  store i32 %0, ptr %2, align 4, !tbaa !28
  %3 = load i32, ptr %2, align 4, !tbaa !28
  %4 = icmp sle i32 %3, 0
  %5 = zext i1 %4 to i8
  ret i8 %5
}

; Function Attrs: inlinehint mustprogress uwtable
define linkonce_odr noundef zeroext i1 @_ZNK6icu_776LocaleneERKS0_(ptr noundef nonnull align 8 dereferenceable(217) %0, ptr noundef nonnull align 8 dereferenceable(217) %1) #6 comdat align 2 {
  %3 = alloca ptr, align 8
  %4 = alloca ptr, align 8
  store ptr %0, ptr %3, align 8, !tbaa !85
  store ptr %1, ptr %4, align 8, !tbaa !85
  %5 = load ptr, ptr %3, align 8
  %6 = load ptr, ptr %4, align 8, !tbaa !85
  %7 = call noundef zeroext i1 @_ZNK6icu_776LocaleeqERKS0_(ptr noundef nonnull align 8 dereferenceable(217) %5, ptr noundef nonnull align 8 dereferenceable(217) %6)
  %8 = xor i1 %7, true
  ret i1 %8
}

; Function Attrs: mustprogress uwtable
define void @_ZN6icu_7721RuleBasedNumberFormat29initCapitalizationContextInfoERKNS_6LocaleE(ptr noundef nonnull align 8 dereferenceable(456) %0, ptr noundef nonnull align 8 dereferenceable(217) %1) #2 align 2 personality ptr @__gxx_personality_v0 {
  %3 = alloca ptr, align 8
  %4 = alloca ptr, align 8
  %5 = alloca ptr, align 8
  %6 = alloca %"class.icu_77::Locale", align 8
  %7 = alloca ptr, align 8
  %8 = alloca i32, align 4
  %9 = alloca i32, align 4
  %10 = alloca ptr, align 8
  %11 = alloca i32, align 4
  %12 = alloca ptr, align 8
  store ptr %0, ptr %3, align 8, !tbaa !3
  store ptr %1, ptr %4, align 8, !tbaa !85
  %13 = load ptr, ptr %3, align 8
  call void @llvm.lifetime.start.p0(i64 8, ptr %5) #14
  %14 = load ptr, ptr %4, align 8, !tbaa !85
  call void @llvm.lifetime.start.p0(i64 224, ptr %6) #14
  call void @_ZN6icu_776LocaleC1EPKcS2_S2_S2_(ptr noundef nonnull align 8 dereferenceable(217) %6, ptr noundef null, ptr noundef null, ptr noundef null, ptr noundef null)
  %15 = invoke noundef zeroext i1 @_ZNK6icu_776LocaleneERKS0_(ptr noundef nonnull align 8 dereferenceable(217) %14, ptr noundef nonnull align 8 dereferenceable(217) %6)
          to label %16 unwind label %61

16:                                               ; preds = %2
  br i1 %15, label %17, label %21

17:                                               ; preds = %16
  %18 = load ptr, ptr %4, align 8, !tbaa !85
  %19 = invoke noundef ptr @_ZNK6icu_776Locale11getBaseNameEv(ptr noundef nonnull align 8 dereferenceable(217) %18)
          to label %20 unwind label %61

20:                                               ; preds = %17
  br label %22

21:                                               ; preds = %16
  br label %22

22:                                               ; preds = %21, %20
  %23 = phi ptr [ %19, %20 ], [ null, %21 ]
  call void @_ZN6icu_776LocaleD1Ev(ptr noundef nonnull align 8 dereferenceable(217) %6) #14
  call void @llvm.lifetime.end.p0(i64 224, ptr %6) #14
  store ptr %23, ptr %5, align 8, !tbaa !48
  call void @llvm.lifetime.start.p0(i64 4, ptr %9) #14
  store i32 0, ptr %9, align 4, !tbaa !28
  call void @llvm.lifetime.start.p0(i64 8, ptr %10) #14
  %24 = load ptr, ptr %5, align 8, !tbaa !48
  %25 = call ptr @ures_open_77(ptr noundef null, ptr noundef %24, ptr noundef %9)
  store ptr %25, ptr %10, align 8, !tbaa !128
  %26 = load ptr, ptr %10, align 8, !tbaa !128
  %27 = load ptr, ptr %10, align 8, !tbaa !128
  %28 = call ptr @ures_getByKeyWithFallback_77(ptr noundef %26, ptr noundef @.str.11, ptr noundef %27, ptr noundef %9)
  store ptr %28, ptr %10, align 8, !tbaa !128
  %29 = load ptr, ptr %10, align 8, !tbaa !128
  %30 = load ptr, ptr %10, align 8, !tbaa !128
  %31 = call ptr @ures_getByKeyWithFallback_77(ptr noundef %29, ptr noundef @.str.12, ptr noundef %30, ptr noundef %9)
  store ptr %31, ptr %10, align 8, !tbaa !128
  %32 = load i32, ptr %9, align 4, !tbaa !28
  %33 = call noundef signext i8 @_ZL9U_SUCCESS10UErrorCode(i32 noundef %32)
  %34 = icmp ne i8 %33, 0
  br i1 %34, label %35, label %66

35:                                               ; preds = %22
  %36 = load ptr, ptr %10, align 8, !tbaa !128
  %37 = icmp ne ptr %36, null
  br i1 %37, label %38, label %66

38:                                               ; preds = %35
  call void @llvm.lifetime.start.p0(i64 4, ptr %11) #14
  store i32 0, ptr %11, align 4, !tbaa !12
  call void @llvm.lifetime.start.p0(i64 8, ptr %12) #14
  %39 = load ptr, ptr %10, align 8, !tbaa !128
  %40 = call ptr @ures_getIntVector_77(ptr noundef %39, ptr noundef %11, ptr noundef %9)
  store ptr %40, ptr %12, align 8, !tbaa !59
  %41 = load i32, ptr %9, align 4, !tbaa !28
  %42 = call noundef signext i8 @_ZL9U_SUCCESS10UErrorCode(i32 noundef %41)
  %43 = icmp ne i8 %42, 0
  br i1 %43, label %44, label %65

44:                                               ; preds = %38
  %45 = load ptr, ptr %12, align 8, !tbaa !59
  %46 = icmp ne ptr %45, null
  br i1 %46, label %47, label %65

47:                                               ; preds = %44
  %48 = load i32, ptr %11, align 4, !tbaa !12
  %49 = icmp sge i32 %48, 2
  br i1 %49, label %50, label %65

50:                                               ; preds = %47
  %51 = load ptr, ptr %12, align 8, !tbaa !59
  %52 = getelementptr inbounds i32, ptr %51, i64 0
  %53 = load i32, ptr %52, align 4, !tbaa !12
  %54 = trunc i32 %53 to i8
  %55 = getelementptr inbounds nuw %"class.icu_77::RuleBasedNumberFormat", ptr %13, i32 0, i32 16
  store i8 %54, ptr %55, align 1, !tbaa !116
  %56 = load ptr, ptr %12, align 8, !tbaa !59
  %57 = getelementptr inbounds i32, ptr %56, i64 1
  %58 = load i32, ptr %57, align 4, !tbaa !12
  %59 = trunc i32 %58 to i8
  %60 = getelementptr inbounds nuw %"class.icu_77::RuleBasedNumberFormat", ptr %13, i32 0, i32 17
  store i8 %59, ptr %60, align 2, !tbaa !117
  br label %65

61:                                               ; preds = %17, %2
  %62 = landingpad { ptr, i32 }
          cleanup
  %63 = extractvalue { ptr, i32 } %62, 0
  store ptr %63, ptr %7, align 8
  %64 = extractvalue { ptr, i32 } %62, 1
  store i32 %64, ptr %8, align 4
  call void @_ZN6icu_776LocaleD1Ev(ptr noundef nonnull align 8 dereferenceable(217) %6) #14
  call void @llvm.lifetime.end.p0(i64 224, ptr %6) #14
  call void @llvm.lifetime.end.p0(i64 8, ptr %5) #14
  br label %68

65:                                               ; preds = %50, %47, %44, %38
  call void @llvm.lifetime.end.p0(i64 8, ptr %12) #14
  call void @llvm.lifetime.end.p0(i64 4, ptr %11) #14
  br label %66

66:                                               ; preds = %65, %35, %22
  %67 = load ptr, ptr %10, align 8, !tbaa !128
  call void @ures_close_77(ptr noundef %67)
  call void @llvm.lifetime.end.p0(i64 8, ptr %10) #14
  call void @llvm.lifetime.end.p0(i64 4, ptr %9) #14
  call void @llvm.lifetime.end.p0(i64 8, ptr %5) #14
  ret void

68:                                               ; preds = %61
  %69 = load ptr, ptr %7, align 8
  %70 = load i32, ptr %8, align 4
  %71 = insertvalue { ptr, i32 } poison, ptr %69, 0
  %72 = insertvalue { ptr, i32 } %71, i32 %70, 1
  resume { ptr, i32 } %72
}