; Function Attrs: mustprogress uwtable
define void @_ZN6icu_7721RuleBasedNumberFormat29initCapitalizationContextInfoERKNS_6LocaleE(ptr noundef nonnull writeonly align 8 captures(none) dereferenceable(456) %0, ptr noundef nonnull align 8 dereferenceable(217) %1) local_unnamed_addr #3 align 2 personality ptr @__gxx_personality_v0 {
  %3 = alloca %"class.icu_77::Locale", align 8
  %4 = alloca i32, align 4
  %5 = alloca i32, align 4
  call void @llvm.lifetime.start.p0(i64 224, ptr nonnull %3) #21
  call void @_ZN6icu_776LocaleC1EPKcS2_S2_S2_(ptr noundef nonnull align 8 dereferenceable(217) %3, ptr noundef null, ptr noundef null, ptr noundef null, ptr noundef null)
  %6 = invoke noundef zeroext i1 @_ZNK6icu_776LocaleeqERKS0_(ptr noundef nonnull align 8 dereferenceable(217) %1, ptr noundef nonnull align 8 dereferenceable(217) %3)
          to label %7 unwind label %33

7:                                                ; preds = %2
  br i1 %6, label %10, label %8

8:                                                ; preds = %7
  %9 = invoke noundef ptr @_ZNK6icu_776Locale11getBaseNameEv(ptr noundef nonnull align 8 dereferenceable(217) %1)
          to label %10 unwind label %33

10:                                               ; preds = %7, %8
  %11 = phi ptr [ %9, %8 ], [ null, %7 ]
  call void @_ZN6icu_776LocaleD1Ev(ptr noundef nonnull align 8 dereferenceable(217) %3) #21
  call void @llvm.lifetime.end.p0(i64 224, ptr nonnull %3) #21
  call void @llvm.lifetime.start.p0(i64 4, ptr nonnull %4) #21
  store i32 0, ptr %4, align 4, !tbaa !19
  %12 = call ptr @ures_open_77(ptr noundef null, ptr noundef %11, ptr noundef nonnull %4)
  %13 = call ptr @ures_getByKeyWithFallback_77(ptr noundef %12, ptr noundef nonnull @.str.11, ptr noundef %12, ptr noundef nonnull %4)
  %14 = call ptr @ures_getByKeyWithFallback_77(ptr noundef %13, ptr noundef nonnull @.str.12, ptr noundef %13, ptr noundef nonnull %4)
  %15 = load i32, ptr %4, align 4, !tbaa !19
  %16 = icmp slt i32 %15, 1
  %17 = icmp ne ptr %14, null
  %or.cond = select i1 %16, i1 %17, i1 false
  br i1 %or.cond, label %18, label %36

18:                                               ; preds = %10
  call void @llvm.lifetime.start.p0(i64 4, ptr nonnull %5) #21
  store i32 0, ptr %5, align 4, !tbaa !35
  %19 = call ptr @ures_getIntVector_77(ptr noundef nonnull %14, ptr noundef nonnull %5, ptr noundef nonnull %4)
  %20 = load i32, ptr %4, align 4, !tbaa !19
  %21 = icmp slt i32 %20, 1
  %22 = icmp ne ptr %19, null
  %or.cond3 = select i1 %21, i1 %22, i1 false
  %23 = load i32, ptr %5, align 4
  %24 = icmp sgt i32 %23, 1
  %or.cond5 = select i1 %or.cond3, i1 %24, i1 false
  br i1 %or.cond5, label %25, label %35

25:                                               ; preds = %18
  %26 = load i32, ptr %19, align 4, !tbaa !35
  %27 = trunc i32 %26 to i8
  %28 = getelementptr inbounds nuw i8, ptr %0, i64 441
  store i8 %27, ptr %28, align 1, !tbaa !87
  %29 = getelementptr inbounds nuw i8, ptr %19, i64 4
  %30 = load i32, ptr %29, align 4, !tbaa !35
  %31 = trunc i32 %30 to i8
  %32 = getelementptr inbounds nuw i8, ptr %0, i64 442
  store i8 %31, ptr %32, align 2, !tbaa !88
  br label %35

33:                                               ; preds = %2, %8
  %34 = landingpad { ptr, i32 }
          cleanup
  call void @_ZN6icu_776LocaleD1Ev(ptr noundef nonnull align 8 dereferenceable(217) %3) #21
  call void @llvm.lifetime.end.p0(i64 224, ptr nonnull %3) #21
  resume { ptr, i32 } %34

35:                                               ; preds = %25, %18
  call void @llvm.lifetime.end.p0(i64 4, ptr nonnull %5) #21
  br label %36

36:                                               ; preds = %35, %10
  call void @ures_close_77(ptr noundef %14)
  call void @llvm.lifetime.end.p0(i64 4, ptr nonnull %4) #21
  ret void
}